target datalayout = "e-m:e-p270:32:32-p271:32:32-p272:64:64-i64:64-i128:128-f80:128-n8:16:32:64-S128"
target triple = "x86_64-pc-linux-gnu"

%struct._GArray = type { ptr, i32 }
%struct.file_extension_info = type { ptr, i8, ptr }

@file_type_extensions_arr = internal global ptr null, align 8
@file_type_extensions = internal global ptr null, align 8

; Function Attrs: null_pointer_is_valid sspstrong uwtable
define internal void @init_file_type_extensions() #0 {
  %1 = load ptr, ptr @file_type_extensions_arr, align 8
  %2 = icmp ne ptr %1, null
  br i1 %2, label %3, label %4

3:                                                ; preds = %0
  br label %11

4:                                                ; preds = %0
  %5 = call ptr @g_array_new(i32 noundef 0, i32 noundef 1, i32 noundef 24)
  store ptr %5, ptr @file_type_extensions_arr, align 8
  %6 = load ptr, ptr @file_type_extensions_arr, align 8
  %7 = call ptr @g_array_append_vals(ptr noundef %6, ptr noundef @file_type_extensions_base, i32 noundef 38)
  %8 = load ptr, ptr @file_type_extensions_arr, align 8
  %9 = getelementptr inbounds nuw %struct._GArray, ptr %8, i32 0, i32 0
  %10 = load ptr, ptr %9, align 8
  store ptr %10, ptr @file_type_extensions, align 8
  br label %11

11:                                               ; preds = %4, %3
  ret void
}

; Function Attrs: null_pointer_is_valid sspstrong uwtable
define ptr @wtap_get_all_capture_file_extensions_list() #0 {
  %1 = alloca ptr, align 8
  %2 = alloca ptr, align 8
  %3 = alloca i32, align 4
  call void @llvm.lifetime.start.p0(i64 8, ptr %1) #12
  call void @llvm.lifetime.start.p0(i64 8, ptr %2) #12
  call void @llvm.lifetime.start.p0(i64 4, ptr %3) #12
  call void @init_file_type_extensions()
  store ptr null, ptr %1, align 8
  %4 = call ptr @wtap_get_all_compression_type_extensions_list()
  store ptr %4, ptr %2, align 8
  store i32 0, ptr %3, align 4
  br label %5

5:                                                ; preds = %25, %0
  %6 = load i32, ptr %3, align 4
  %7 = load ptr, ptr @file_type_extensions_arr, align 8
  %8 = getelementptr inbounds nuw %struct._GArray, ptr %7, i32 0, i32 1
  %9 = load i32, ptr %8, align 8
  %10 = icmp ult i32 %6, %9
  br i1 %10, label %11, label %28

11:                                               ; preds = %5
  %12 = load ptr, ptr @file_type_extensions, align 8
  %13 = load i32, ptr %3, align 4
  %14 = zext i32 %13 to i64
  %15 = getelementptr %struct.file_extension_info, ptr %12, i64 %14
  %16 = getelementptr inbounds nuw %struct.file_extension_info, ptr %15, i32 0, i32 1
  %17 = load i8, ptr %16, align 8, !range !10, !noundef !11
  %18 = trunc i8 %17 to i1
  br i1 %18, label %19, label %24

19:                                               ; preds = %11
  %20 = load i32, ptr %3, align 4
  %21 = load ptr, ptr %1, align 8
  %22 = load ptr, ptr %2, align 8
  %23 = call ptr @add_extensions_for_file_extensions_type(i32 noundef %20, ptr noundef %21, ptr noundef %22)
  store ptr %23, ptr %1, align 8
  br label %24

24:                                               ; preds = %19, %11
  br label %25

25:                                               ; preds = %24
  %26 = load i32, ptr %3, align 4
  %27 = add i32 %26, 1
  store i32 %27, ptr %3, align 4
  br label %5, !llvm.loop !31

28:                                               ; preds = %5
  %29 = load ptr, ptr %2, align 8
  call void @g_slist_free(ptr noundef %29)
  %30 = load ptr, ptr %1, align 8
  call void @llvm.lifetime.end.p0(i64 4, ptr %3) #12
  call void @llvm.lifetime.end.p0(i64 8, ptr %2) #12
  call void @llvm.lifetime.end.p0(i64 8, ptr %1) #12
  ret ptr %30
}