; Function Attrs: null_pointer_is_valid sspstrong uwtable
define ptr @wtap_get_all_capture_file_extensions_list() local_unnamed_addr #0 {
  %1 = load ptr, ptr @file_type_extensions_arr, align 8
  %.not.i = icmp eq ptr %1, null
  br i1 %.not.i, label %2, label %init_file_type_extensions.exit

2:                                                ; preds = %0
  %3 = tail call ptr @g_array_new(i32 noundef 0, i32 noundef 1, i32 noundef 24)
  store ptr %3, ptr @file_type_extensions_arr, align 8
  %4 = tail call ptr @g_array_append_vals(ptr noundef %3, ptr noundef nonnull @file_type_extensions_base, i32 noundef 38)
  %5 = load ptr, ptr @file_type_extensions_arr, align 8
  %6 = load ptr, ptr %5, align 8
  store ptr %6, ptr @file_type_extensions, align 8
  br label %init_file_type_extensions.exit

init_file_type_extensions.exit:                   ; preds = %0, %2
  %7 = tail call ptr @wtap_get_all_compression_type_extensions_list()
  %8 = load ptr, ptr @file_type_extensions_arr, align 8
  %9 = getelementptr inbounds nuw i8, ptr %8, i64 8
  %10 = load i32, ptr %9, align 8
  %.not = icmp eq i32 %10, 0
  br i1 %.not, label %._crit_edge, label %.lr.ph.preheader

.lr.ph.preheader:                                 ; preds = %init_file_type_extensions.exit
  %.pre11 = load ptr, ptr @file_type_extensions, align 8
  br label %.lr.ph

.lr.ph:                                           ; preds = %.lr.ph.preheader, %19
  %11 = phi ptr [ %8, %.lr.ph.preheader ], [ %20, %19 ]
  %12 = phi ptr [ %.pre11, %.lr.ph.preheader ], [ %21, %19 ]
  %indvars.iv = phi i64 [ 0, %.lr.ph.preheader ], [ %indvars.iv.next, %19 ]
  %.078 = phi ptr [ null, %.lr.ph.preheader ], [ %.1, %19 ]
  %13 = getelementptr %struct.file_extension_info, ptr %12, i64 %indvars.iv, i32 1
  %14 = load i8, ptr %13, align 8, !range !34, !noundef !35
  %15 = trunc nuw i8 %14 to i1
  br i1 %15, label %16, label %19

16:                                               ; preds = %.lr.ph
  %17 = trunc nuw i64 %indvars.iv to i32
  %18 = tail call fastcc ptr @add_extensions_for_file_extensions_type(i32 noundef %17, ptr noundef %.078, ptr noundef %7)
  %.pre = load ptr, ptr @file_type_extensions, align 8
  %.pre12 = load ptr, ptr @file_type_extensions_arr, align 8
  br label %19

19:                                               ; preds = %.lr.ph, %16
  %20 = phi ptr [ %.pre12, %16 ], [ %11, %.lr.ph ]
  %21 = phi ptr [ %.pre, %16 ], [ %12, %.lr.ph ]
  %.1 = phi ptr [ %18, %16 ], [ %.078, %.lr.ph ]
  %indvars.iv.next = add nuw nsw i64 %indvars.iv, 1
  %22 = getelementptr inbounds nuw i8, ptr %20, i64 8
  %23 = load i32, ptr %22, align 8
  %24 = zext i32 %23 to i64
  %25 = icmp samesign ult i64 %indvars.iv.next, %24
  br i1 %25, label %.lr.ph, label %._crit_edge, !llvm.loop !36

._crit_edge:                                      ; preds = %19, %init_file_type_extensions.exit
  %.07.lcssa = phi ptr [ null, %init_file_type_extensions.exit ], [ %.1, %19 ]
  tail call void @g_slist_free(ptr noundef %7)
  ret ptr %.07.lcssa
}